(lp0
(S'cppflags'
p1
ccopy_reg
_reconstructor
p2
(cino.utils
SpaceList
p3
c__builtin__
list
p4
(lp5
S'-mmcu=atmega328p'
p6
aS'-DF_CPU=16000000L'
p7
aS'-DARDUINO=101'
p8
aS'-I/usr/share/arduino/hardware/arduino/cores/arduino'
p9
aS'-ffunction-sections'
p10
aS'-fdata-sections'
p11
aS'-g'
p12
aS'-Os'
p13
aS'-w'
p14
aS'-I/usr/share/arduino/hardware/arduino/variants/standard'
p15
aS'-Ilib/libraries'
p16
aS'-Ilib/libraries/TimeAlarms'
p17
aS'-Ilib/libraries/bjoern_arduino_osc'
p18
aS'-Ilib/libraries/Time'
p19
aS'-Ilib/libraries/Adafruit_TSL2561'
p20
aS'-Ilib/libraries/Adafruit_Sensor'
p21
aS'-Ilib/libraries/DHT_sensor'
p22
aS'-Ilib/libraries/Adafruit_MPL3115A2'
p23
aS'-Ilib/libraries/DS1307RTC'
p24
aS'-Ilib/libraries/MPL3115A2'
p25
aS'-Ilib/libraries/TimeAlarms/Examples'
p26
aS'-Ilib/libraries/TimeAlarms/Examples/TimeAlarmExample'
p27
aS'-Ilib/libraries/bjoern_arduino_osc/libraries'
p28
aS'-Ilib/libraries/bjoern_arduino_osc/libraries/String'
p29
aS'-Ilib/libraries/bjoern_arduino_osc/libraries/Ethernet'
p30
aS'-Ilib/libraries/Time/Examples'
p31
aS'-Ilib/libraries/Time/Examples/TimeRTCSet'
p32
aS'-Ilib/libraries/Time/Examples/TimeGPS'
p33
aS'-Ilib/libraries/Time/Examples/TimeRTCLog'
p34
aS'-Ilib/libraries/Time/Examples/TimeNTP'
p35
aS'-Ilib/libraries/Time/Examples/TimeSerialDateStrings'
p36
aS'-Ilib/libraries/Time/Examples/TimeRTC'
p37
aS'-Ilib/libraries/Time/Examples/TimeSerial'
p38
aS'-Ilib/libraries/Time/Examples/Processing'
p39
aS'-Ilib/libraries/Time/Examples/Processing/SyncArduinoClock'
p40
aS'-Ilib/libraries/Time/Examples/Processing/SyncArduinoClock'
p41
aS'-Ilib/libraries/MPL3115A2/firmware'
p42
aS'-Ilib/libraries/MPL3115A2/library'
p43
aS'-Ilib/libraries/MPL3115A2/hardware'
p44
aS'-Ilib/libraries/MPL3115A2/fritzing'
p45
aS'-Ilib/libraries/MPL3115A2/firmware/MPL3115A2_FIFO_example'
p46
aS'-Ilib/libraries/MPL3115A2/firmware/MPL3115A2'
p47
aS'-Ilib/libraries/MPL3115A2/library/MPL3115A2_Pressure'
p48
aS'-Ilib/libraries/TimeAlarms/Examples/TimeAlarmExample'
p49
aS'-Ilib/libraries/bjoern_arduino_osc/libraries/String'
p50
aS'-Ilib/libraries/bjoern_arduino_osc/libraries/Ethernet'
p51
aS'-Ilib/libraries/Time/Examples/TimeRTCSet'
p52
aS'-Ilib/libraries/Time/Examples/TimeGPS'
p53
aS'-Ilib/libraries/Time/Examples/TimeRTCLog'
p54
aS'-Ilib/libraries/Time/Examples/TimeNTP'
p55
aS'-Ilib/libraries/Time/Examples/TimeSerialDateStrings'
p56
aS'-Ilib/libraries/Time/Examples/TimeRTC'
p57
aS'-Ilib/libraries/Time/Examples/TimeSerial'
p58
aS'-Ilib/libraries/Time/Examples/Processing'
p59
aS'-Ilib/libraries/Time/Examples/Processing/SyncArduinoClock'
p60
aS'-Ilib/libraries/Time/Examples/Processing/SyncArduinoClock'
p61
aS'-Ilib/libraries/MPL3115A2/firmware/MPL3115A2_FIFO_example'
p62
aS'-Ilib/libraries/MPL3115A2/firmware/MPL3115A2'
p63
aS'-Ilib/libraries/MPL3115A2/library/MPL3115A2_Pressure'
p64
aS'-Ilib/libraries/Time/Examples/Processing/SyncArduinoClock'
p65
aS'-I/usr/share/arduino/libraries/Wire'
p66
aS'-I/usr/share/arduino/libraries/Wire/utility'
p67
aS'-I/usr/share/arduino/libraries/Ethernet'
p68
aS'-I/usr/share/arduino/libraries/Ethernet/utility'
p69
aS'-I/usr/share/arduino/libraries/SPI'
p70
aS'-I/usr/share/arduino/hardware/arduino/cores/arduino'
p71
atp72
Rp73
tp74
a(S'version.txt'
p75
S'/usr/share/arduino/lib/version.txt'
p76
tp77
a(S'used_libs'
p78
(lp79
S'lib/libraries'
p80
aS'/usr/share/arduino/libraries/Wire'
p81
aS'/usr/share/arduino/libraries/Ethernet'
p82
aS'/usr/share/arduino/libraries/SPI'
p83
aS'/usr/share/arduino/hardware/arduino/cores/arduino'
p84
atp85
a(S'cc'
p86
S'/usr/bin/avr-gcc'
p87
tp88
a(S'make'
p89
S'/usr/bin/make'
p90
tp91
a(S'build_dir'
p92
S'.build/uno'
p93
tp94
a(S'arduino_core_dir'
p95
g84
tp96
a(S'boards.txt'
p97
S'/usr/share/arduino/hardware/arduino/boards.txt'
p98
tp99
a(S'cxxflags'
p100
g2
(g3
g4
(lp101
S'-fno-exceptions'
p102
atp103
Rp104
tp105
a(S'arduino_variants_dir'
p106
S'/usr/share/arduino/hardware/arduino/variants'
p107
tp108
a(S'deps'
p109
g2
(g3
g4
(lp110
S'.build/uno/src/dependencies.d'
p111
aS'.build/uno/arduino/dependencies.d'
p112
aS'.build/uno/libraries/dependencies.d'
p113
aS'.build/uno/Wire/dependencies.d'
p114
aS'.build/uno/SPI/dependencies.d'
p115
aS'.build/uno/Ethernet/dependencies.d'
p116
atp117
Rp118
tp119
a(S'ar'
p120
S'/usr/bin/avr-ar'
p121
tp122
a(S'names'
p123
(dp124
S'cpp'
p125
S'%s.cpp'
p126
sS'obj'
p127
S'%s.o'
p128
sS'deps'
p129
S'%s.d'
p130
sS'lib'
p131
S'lib%s.a'
p132
stp133
a(S'cflags'
p134
g2
(g3
g4
(lp135
tp136
Rp137
tp138
a(S'ldflags'
p139
g2
(g3
g4
(lp140
g6
aS'-Wl,-Os'
p141
aS'-Wl,--gc-sections'
p142
atp143
Rp144
tp145
a(S'arduino_libraries_dir'
p146
S'/usr/share/arduino/libraries'
p147
tp148
a(S'arduino_lib_version'
p149
g2
(cino.environment
Version
p150
c__builtin__
tuple
p151
(I1
I0
I1
tp152
tp153
Rp154
tp155
a(S'objcopy'
p156
S'/usr/bin/avr-objcopy'
p157
tp158
a(S'board_models'
p159
cino.environment
BoardModels
p160
((lp161
(lp162
S'uno'
p163
a(dp164
S'bootloader'
p165
(dp166
S'extended_fuses'
p167
S'0x05'
p168
sS'high_fuses'
p169
S'0xde'
p170
sS'low_fuses'
p171
S'0xff'
p172
sS'lock_bits'
p173
S'0x0F'
p174
sS'file'
p175
S'optiboot_atmega328.hex'
p176
sS'path'
p177
S'optiboot'
p178
sS'unlock_bits'
p179
S'0x3F'
p180
ssS'upload'
p181
(dp182
S'speed'
p183
S'115200'
p184
sS'maximum_size'
p185
S'32256'
p186
sS'protocol'
p187
S'arduino'
p188
ssS'name'
p189
S'Arduino Uno'
p190
sS'build'
p191
(dp192
S'core'
p193
S'arduino'
p194
sS'mcu'
p195
S'atmega328p'
p196
sS'f_cpu'
p197
S'16000000L'
p198
sS'variant'
p199
S'standard'
p200
ssaa(lp201
S'atmega328'
p202
a(dp203
S'bootloader'
p204
(dp205
S'extended_fuses'
p206
S'0x05'
p207
sS'high_fuses'
p208
S'0xDA'
p209
sS'low_fuses'
p210
S'0xFF'
p211
sS'lock_bits'
p212
S'0x0F'
p213
sS'file'
p214
S'ATmegaBOOT_168_atmega328.hex'
p215
sS'path'
p216
S'atmega'
p217
sS'unlock_bits'
p218
S'0x3F'
p219
ssS'upload'
p220
(dp221
S'speed'
p222
S'57600'
p223
sS'maximum_size'
p224
S'30720'
p225
sS'protocol'
p226
S'arduino'
p227
ssS'name'
p228
S'Arduino Duemilanove w/ ATmega328'
p229
sS'build'
p230
(dp231
S'core'
p232
S'arduino'
p233
sS'mcu'
p234
S'atmega328p'
p235
sS'f_cpu'
p236
S'16000000L'
p237
sS'variant'
p238
S'standard'
p239
ssaa(lp240
S'diecimila'
p241
a(dp242
S'bootloader'
p243
(dp244
S'extended_fuses'
p245
S'0x00'
p246
sS'high_fuses'
p247
S'0xdd'
p248
sS'low_fuses'
p249
S'0xff'
p250
sS'lock_bits'
p251
S'0x0F'
p252
sS'file'
p253
S'ATmegaBOOT_168_diecimila.hex'
p254
sS'path'
p255
S'atmega'
p256
sS'unlock_bits'
p257
S'0x3F'
p258
ssS'upload'
p259
(dp260
S'speed'
p261
S'19200'
p262
sS'maximum_size'
p263
S'14336'
p264
sS'protocol'
p265
S'arduino'
p266
ssS'name'
p267
S'Arduino Diecimila or Duemilanove w/ ATmega168'
p268
sS'build'
p269
(dp270
S'core'
p271
S'arduino'
p272
sS'mcu'
p273
S'atmega168'
p274
sS'f_cpu'
p275
S'16000000L'
p276
sS'variant'
p277
S'standard'
p278
ssaa(lp279
S'nano328'
p280
a(dp281
S'bootloader'
p282
(dp283
S'extended_fuses'
p284
S'0x05'
p285
sS'high_fuses'
p286
S'0xDA'
p287
sS'low_fuses'
p288
S'0xFF'
p289
sS'lock_bits'
p290
S'0x0F'
p291
sS'file'
p292
S'ATmegaBOOT_168_atmega328.hex'
p293
sS'path'
p294
S'atmega'
p295
sS'unlock_bits'
p296
S'0x3F'
p297
ssS'upload'
p298
(dp299
S'speed'
p300
S'57600'
p301
sS'maximum_size'
p302
S'30720'
p303
sS'protocol'
p304
S'arduino'
p305
ssS'name'
p306
S'Arduino Nano w/ ATmega328'
p307
sS'build'
p308
(dp309
S'core'
p310
S'arduino'
p311
sS'mcu'
p312
S'atmega328p'
p313
sS'f_cpu'
p314
S'16000000L'
p315
sS'variant'
p316
S'eightanaloginputs'
p317
ssaa(lp318
S'nano'
p319
a(dp320
S'bootloader'
p321
(dp322
S'extended_fuses'
p323
S'0x00'
p324
sS'high_fuses'
p325
S'0xdd'
p326
sS'low_fuses'
p327
S'0xff'
p328
sS'lock_bits'
p329
S'0x0F'
p330
sS'file'
p331
S'ATmegaBOOT_168_diecimila.hex'
p332
sS'path'
p333
S'atmega'
p334
sS'unlock_bits'
p335
S'0x3F'
p336
ssS'upload'
p337
(dp338
S'speed'
p339
S'19200'
p340
sS'maximum_size'
p341
S'14336'
p342
sS'protocol'
p343
S'arduino'
p344
ssS'name'
p345
S'Arduino Nano w/ ATmega168'
p346
sS'build'
p347
(dp348
S'core'
p349
S'arduino'
p350
sS'mcu'
p351
S'atmega168'
p352
sS'f_cpu'
p353
S'16000000L'
p354
sS'variant'
p355
S'eightanaloginputs'
p356
ssaa(lp357
S'mega2560'
p358
a(dp359
S'bootloader'
p360
(dp361
S'extended_fuses'
p362
S'0xFD'
p363
sS'high_fuses'
p364
S'0xD8'
p365
sS'low_fuses'
p366
S'0xFF'
p367
sS'lock_bits'
p368
S'0x0F'
p369
sS'file'
p370
S'stk500boot_v2_mega2560.hex'
p371
sS'path'
p372
S'stk500v2'
p373
sS'unlock_bits'
p374
S'0x3F'
p375
ssS'upload'
p376
(dp377
S'speed'
p378
S'115200'
p379
sS'maximum_size'
p380
S'258048'
p381
sS'protocol'
p382
S'stk500v2'
p383
ssS'name'
p384
S'Arduino Mega 2560 or Mega ADK'
p385
sS'build'
p386
(dp387
S'core'
p388
S'arduino'
p389
sS'mcu'
p390
S'atmega2560'
p391
sS'f_cpu'
p392
S'16000000L'
p393
sS'variant'
p394
S'mega'
p395
ssaa(lp396
S'mega'
p397
a(dp398
S'bootloader'
p399
(dp400
S'extended_fuses'
p401
S'0xF5'
p402
sS'high_fuses'
p403
S'0xDA'
p404
sS'low_fuses'
p405
S'0xFF'
p406
sS'lock_bits'
p407
S'0x0F'
p408
sS'file'
p409
S'ATmegaBOOT_168_atmega1280.hex'
p410
sS'path'
p411
S'atmega'
p412
sS'unlock_bits'
p413
S'0x3F'
p414
ssS'upload'
p415
(dp416
S'speed'
p417
S'57600'
p418
sS'maximum_size'
p419
S'126976'
p420
sS'protocol'
p421
S'arduino'
p422
ssS'name'
p423
S'Arduino Mega (ATmega1280)'
p424
sS'build'
p425
(dp426
S'core'
p427
S'arduino'
p428
sS'mcu'
p429
S'atmega1280'
p430
sS'f_cpu'
p431
S'16000000L'
p432
sS'variant'
p433
S'mega'
p434
ssaa(lp435
S'leonardo'
p436
a(dp437
S'bootloader'
p438
(dp439
S'extended_fuses'
p440
S'0xcb'
p441
sS'high_fuses'
p442
S'0xd8'
p443
sS'low_fuses'
p444
S'0xff'
p445
sS'lock_bits'
p446
S'0x2F'
p447
sS'file'
p448
S'Caterina-Leonardo.hex'
p449
sS'path'
p450
S'caterina'
p451
sS'unlock_bits'
p452
S'0x3F'
p453
ssS'upload'
p454
(dp455
S'speed'
p456
S'57600'
p457
sS'maximum_size'
p458
S'28672'
p459
sS'protocol'
p460
S'avr109'
p461
sS'disable_flushing'
p462
S'true'
p463
ssS'name'
p464
S'Arduino Leonardo'
p465
sS'build'
p466
(dp467
S'core'
p468
S'arduino'
p469
sS'f_cpu'
p470
S'16000000L'
p471
sS'vid'
p472
S'0x2341'
p473
sS'pid'
p474
S'0x8036'
p475
sS'variant'
p476
S'leonardo'
p477
sS'mcu'
p478
S'atmega32u4'
p479
ssaa(lp480
S'mini328'
p481
a(dp482
S'bootloader'
p483
(dp484
S'extended_fuses'
p485
S'0x05'
p486
sS'high_fuses'
p487
S'0xd8'
p488
sS'low_fuses'
p489
S'0xff'
p490
sS'lock_bits'
p491
S'0x0F'
p492
sS'file'
p493
S'optiboot_atmega328-Mini.hex'
p494
sS'path'
p495
S'optiboot'
p496
sS'unlock_bits'
p497
S'0x3F'
p498
ssS'upload'
p499
(dp500
S'speed'
p501
S'115200'
p502
sS'maximum_size'
p503
S'28672'
p504
sS'protocol'
p505
S'arduino'
p506
ssS'name'
p507
S'Arduino Mini w/ ATmega328'
p508
sS'build'
p509
(dp510
S'core'
p511
S'arduino'
p512
sS'mcu'
p513
S'atmega328p'
p514
sS'f_cpu'
p515
S'16000000L'
p516
sS'variant'
p517
S'eightanaloginputs'
p518
ssaa(lp519
S'mini'
p520
a(dp521
S'bootloader'
p522
(dp523
S'extended_fuses'
p524
S'0x00'
p525
sS'high_fuses'
p526
S'0xdd'
p527
sS'low_fuses'
p528
S'0xff'
p529
sS'lock_bits'
p530
S'0x0F'
p531
sS'file'
p532
S'ATmegaBOOT_168_ng.hex'
p533
sS'path'
p534
S'atmega'
p535
sS'unlock_bits'
p536
S'0x3F'
p537
ssS'upload'
p538
(dp539
S'speed'
p540
S'19200'
p541
sS'maximum_size'
p542
S'14336'
p543
sS'protocol'
p544
S'arduino'
p545
ssS'name'
p546
S'Arduino Mini w/ ATmega168'
p547
sS'build'
p548
(dp549
S'core'
p550
S'arduino'
p551
sS'mcu'
p552
S'atmega168'
p553
sS'f_cpu'
p554
S'16000000L'
p555
sS'variant'
p556
S'eightanaloginputs'
p557
ssaa(lp558
S'ethernet'
p559
a(dp560
S'bootloader'
p561
(dp562
S'extended_fuses'
p563
S'0x05'
p564
sS'high_fuses'
p565
S'0xde'
p566
sS'low_fuses'
p567
S'0xff'
p568
sS'lock_bits'
p569
S'0x0F'
p570
sS'file'
p571
S'optiboot_atmega328.hex'
p572
sS'path'
p573
S'optiboot'
p574
sS'unlock_bits'
p575
S'0x3F'
p576
ssS'upload'
p577
(dp578
S'speed'
p579
S'115200'
p580
sS'maximum_size'
p581
S'32256'
p582
sS'protocol'
p583
S'arduino'
p584
ssS'name'
p585
S'Arduino Ethernet'
p586
sS'build'
p587
(dp588
S'f_cpu'
p589
S'16000000L'
p590
sS'mcu'
p591
S'atmega328p'
p592
sS'variant'
p593
S'standard'
p594
sS'core'
p595
S'arduino'
p596
ssaa(lp597
S'fio'
p598
a(dp599
S'bootloader'
p600
(dp601
S'extended_fuses'
p602
S'0x05'
p603
sS'high_fuses'
p604
S'0xDA'
p605
sS'low_fuses'
p606
S'0xFF'
p607
sS'lock_bits'
p608
S'0x0F'
p609
sS'file'
p610
S'ATmegaBOOT_168_atmega328_pro_8MHz.hex'
p611
sS'path'
p612
S'arduino:atmega'
p613
sS'unlock_bits'
p614
S'0x3F'
p615
ssS'upload'
p616
(dp617
S'speed'
p618
S'57600'
p619
sS'maximum_size'
p620
S'30720'
p621
sS'protocol'
p622
S'arduino'
p623
ssS'name'
p624
S'Arduino Fio'
p625
sS'build'
p626
(dp627
S'core'
p628
S'arduino'
p629
sS'mcu'
p630
S'atmega328p'
p631
sS'f_cpu'
p632
S'8000000L'
p633
sS'variant'
p634
S'eightanaloginputs'
p635
ssaa(lp636
S'bt328'
p637
a(dp638
S'bootloader'
p639
(dp640
S'extended_fuses'
p641
S'0x05'
p642
sS'high_fuses'
p643
S'0xd8'
p644
sS'low_fuses'
p645
S'0xff'
p646
sS'lock_bits'
p647
S'0x0F'
p648
sS'file'
p649
S'ATmegaBOOT_168_atmega328_bt.hex'
p650
sS'path'
p651
S'bt'
p652
sS'unlock_bits'
p653
S'0x3F'
p654
ssS'upload'
p655
(dp656
S'speed'
p657
S'19200'
p658
sS'maximum_size'
p659
S'28672'
p660
sS'protocol'
p661
S'arduino'
p662
sS'disable_flushing'
p663
S'true'
p664
ssS'name'
p665
S'Arduino BT w/ ATmega328'
p666
sS'build'
p667
(dp668
S'core'
p669
S'arduino'
p670
sS'mcu'
p671
S'atmega328p'
p672
sS'f_cpu'
p673
S'16000000L'
p674
sS'variant'
p675
S'eightanaloginputs'
p676
ssaa(lp677
S'bt'
p678
a(dp679
S'bootloader'
p680
(dp681
S'extended_fuses'
p682
S'0x00'
p683
sS'high_fuses'
p684
S'0xdd'
p685
sS'low_fuses'
p686
S'0xff'
p687
sS'lock_bits'
p688
S'0x0F'
p689
sS'file'
p690
S'ATmegaBOOT_168.hex'
p691
sS'path'
p692
S'bt'
p693
sS'unlock_bits'
p694
S'0x3F'
p695
ssS'upload'
p696
(dp697
S'speed'
p698
S'19200'
p699
sS'maximum_size'
p700
S'14336'
p701
sS'protocol'
p702
S'arduino'
p703
sS'disable_flushing'
p704
S'true'
p705
ssS'name'
p706
S'Arduino BT w/ ATmega168'
p707
sS'build'
p708
(dp709
S'core'
p710
S'arduino'
p711
sS'mcu'
p712
S'atmega168'
p713
sS'f_cpu'
p714
S'16000000L'
p715
sS'variant'
p716
S'eightanaloginputs'
p717
ssaa(lp718
S'lilypad328'
p719
a(dp720
S'bootloader'
p721
(dp722
S'extended_fuses'
p723
S'0x05'
p724
sS'high_fuses'
p725
S'0xDA'
p726
sS'low_fuses'
p727
S'0xFF'
p728
sS'lock_bits'
p729
S'0x0F'
p730
sS'file'
p731
S'ATmegaBOOT_168_atmega328_pro_8MHz.hex'
p732
sS'path'
p733
S'atmega'
p734
sS'unlock_bits'
p735
S'0x3F'
p736
ssS'upload'
p737
(dp738
S'speed'
p739
S'57600'
p740
sS'maximum_size'
p741
S'30720'
p742
sS'protocol'
p743
S'arduino'
p744
ssS'name'
p745
S'LilyPad Arduino w/ ATmega328'
p746
sS'build'
p747
(dp748
S'core'
p749
S'arduino'
p750
sS'mcu'
p751
S'atmega328p'
p752
sS'f_cpu'
p753
S'8000000L'
p754
sS'variant'
p755
S'standard'
p756
ssaa(lp757
S'lilypad'
p758
a(dp759
S'bootloader'
p760
(dp761
S'extended_fuses'
p762
S'0x00'
p763
sS'high_fuses'
p764
S'0xdd'
p765
sS'low_fuses'
p766
S'0xe2'
p767
sS'lock_bits'
p768
S'0x0F'
p769
sS'file'
p770
S'LilyPadBOOT_168.hex'
p771
sS'path'
p772
S'lilypad'
p773
sS'unlock_bits'
p774
S'0x3F'
p775
ssS'upload'
p776
(dp777
S'speed'
p778
S'19200'
p779
sS'maximum_size'
p780
S'14336'
p781
sS'protocol'
p782
S'arduino'
p783
ssS'name'
p784
S'LilyPad Arduino w/ ATmega168'
p785
sS'build'
p786
(dp787
S'core'
p788
S'arduino'
p789
sS'mcu'
p790
S'atmega168'
p791
sS'f_cpu'
p792
S'8000000L'
p793
sS'variant'
p794
S'standard'
p795
ssaa(lp796
S'pro5v328'
p797
a(dp798
S'bootloader'
p799
(dp800
S'extended_fuses'
p801
S'0x05'
p802
sS'high_fuses'
p803
S'0xDA'
p804
sS'low_fuses'
p805
S'0xFF'
p806
sS'lock_bits'
p807
S'0x0F'
p808
sS'file'
p809
S'ATmegaBOOT_168_atmega328.hex'
p810
sS'path'
p811
S'atmega'
p812
sS'unlock_bits'
p813
S'0x3F'
p814
ssS'upload'
p815
(dp816
S'speed'
p817
S'57600'
p818
sS'maximum_size'
p819
S'30720'
p820
sS'protocol'
p821
S'arduino'
p822
ssS'name'
p823
S'Arduino Pro or Pro Mini (5V, 16 MHz) w/ ATmega328'
p824
sS'build'
p825
(dp826
S'core'
p827
S'arduino'
p828
sS'mcu'
p829
S'atmega328p'
p830
sS'f_cpu'
p831
S'16000000L'
p832
sS'variant'
p833
S'standard'
p834
ssaa(lp835
S'pro5v'
p836
a(dp837
S'bootloader'
p838
(dp839
S'extended_fuses'
p840
S'0x00'
p841
sS'high_fuses'
p842
S'0xdd'
p843
sS'low_fuses'
p844
S'0xff'
p845
sS'lock_bits'
p846
S'0x0F'
p847
sS'file'
p848
S'ATmegaBOOT_168_diecimila.hex'
p849
sS'path'
p850
S'atmega'
p851
sS'unlock_bits'
p852
S'0x3F'
p853
ssS'upload'
p854
(dp855
S'speed'
p856
S'19200'
p857
sS'maximum_size'
p858
S'14336'
p859
sS'protocol'
p860
S'arduino'
p861
ssS'name'
p862
S'Arduino Pro or Pro Mini (5V, 16 MHz) w/ ATmega168'
p863
sS'build'
p864
(dp865
S'core'
p866
S'arduino'
p867
sS'mcu'
p868
S'atmega168'
p869
sS'f_cpu'
p870
S'16000000L'
p871
sS'variant'
p872
S'standard'
p873
ssaa(lp874
S'pro328'
p875
a(dp876
S'bootloader'
p877
(dp878
S'extended_fuses'
p879
S'0x05'
p880
sS'high_fuses'
p881
S'0xDA'
p882
sS'low_fuses'
p883
S'0xFF'
p884
sS'lock_bits'
p885
S'0x0F'
p886
sS'file'
p887
S'ATmegaBOOT_168_atmega328_pro_8MHz.hex'
p888
sS'path'
p889
S'atmega'
p890
sS'unlock_bits'
p891
S'0x3F'
p892
ssS'upload'
p893
(dp894
S'speed'
p895
S'57600'
p896
sS'maximum_size'
p897
S'30720'
p898
sS'protocol'
p899
S'arduino'
p900
ssS'name'
p901
S'Arduino Pro or Pro Mini (3.3V, 8 MHz) w/ ATmega328'
p902
sS'build'
p903
(dp904
S'core'
p905
S'arduino'
p906
sS'mcu'
p907
S'atmega328p'
p908
sS'f_cpu'
p909
S'8000000L'
p910
sS'variant'
p911
S'standard'
p912
ssaa(lp913
S'pro'
p914
a(dp915
S'bootloader'
p916
(dp917
S'extended_fuses'
p918
S'0x00'
p919
sS'high_fuses'
p920
S'0xdd'
p921
sS'low_fuses'
p922
S'0xc6'
p923
sS'lock_bits'
p924
S'0x0F'
p925
sS'file'
p926
S'ATmegaBOOT_168_pro_8MHz.hex'
p927
sS'path'
p928
S'atmega'
p929
sS'unlock_bits'
p930
S'0x3F'
p931
ssS'upload'
p932
(dp933
S'speed'
p934
S'19200'
p935
sS'maximum_size'
p936
S'14336'
p937
sS'protocol'
p938
S'arduino'
p939
ssS'name'
p940
S'Arduino Pro or Pro Mini (3.3V, 8 MHz) w/ ATmega168'
p941
sS'build'
p942
(dp943
S'core'
p944
S'arduino'
p945
sS'mcu'
p946
S'atmega168'
p947
sS'f_cpu'
p948
S'8000000L'
p949
sS'variant'
p950
S'standard'
p951
ssaa(lp952
S'atmega168'
p953
a(dp954
S'bootloader'
p955
(dp956
S'extended_fuses'
p957
S'0x00'
p958
sS'high_fuses'
p959
S'0xdd'
p960
sS'low_fuses'
p961
S'0xff'
p962
sS'lock_bits'
p963
S'0x0F'
p964
sS'file'
p965
S'ATmegaBOOT_168_ng.hex'
p966
sS'path'
p967
S'atmega'
p968
sS'unlock_bits'
p969
S'0x3F'
p970
ssS'upload'
p971
(dp972
S'speed'
p973
S'19200'
p974
sS'maximum_size'
p975
S'14336'
p976
sS'protocol'
p977
S'arduino'
p978
ssS'name'
p979
S'Arduino NG or older w/ ATmega168'
p980
sS'build'
p981
(dp982
S'core'
p983
S'arduino'
p984
sS'mcu'
p985
S'atmega168'
p986
sS'f_cpu'
p987
S'16000000L'
p988
sS'variant'
p989
S'standard'
p990
ssaa(lp991
S'atmega8'
p992
a(dp993
S'bootloader'
p994
(dp995
S'high_fuses'
p996
S'0xca'
p997
sS'low_fuses'
p998
S'0xdf'
p999
sS'lock_bits'
p1000
S'0x0F'
p1001
sS'file'
p1002
S'ATmegaBOOT.hex'
p1003
sS'path'
p1004
S'atmega8'
p1005
sS'unlock_bits'
p1006
S'0x3F'
p1007
ssS'upload'
p1008
(dp1009
S'speed'
p1010
S'19200'
p1011
sS'maximum_size'
p1012
S'7168'
p1013
sS'protocol'
p1014
S'arduino'
p1015
ssS'name'
p1016
S'Arduino NG or older w/ ATmega8'
p1017
sS'build'
p1018
(dp1019
S'core'
p1020
S'arduino'
p1021
sS'mcu'
p1022
S'atmega8'
p1023
sS'f_cpu'
p1024
S'16000000L'
p1025
sS'variant'
p1026
S'standard'
p1027
ssaatp1028
Rp1029
(dp1030
S'default'
p1031
S'uno'
p1032
sbtp1033
a(S'cxx'
p1034
S'/usr/bin/avr-g++'
p1035
tp1036
a.